target datalayout = "e-m:e-p270:32:32-p271:32:32-p272:64:64-i64:64-i128:128-f80:128-n8:16:32:64-S128"
target triple = "x86_64-pc-linux-gnu"

%struct._object = type { %union.anon, ptr }
%union.anon = type { i64 }
%struct.anon = type { i32, i32 }
%struct._internal_name_mapper_state = type { ptr, i32 }

@.str.133 = private unnamed_addr constant [22 x i8] c"openssl_md_meth_names\00", align 1

; Function Attrs: alwaysinline nounwind uwtable
define internal i32 @_Py_IsImmortal(ptr noundef %0) #3 {
  %2 = alloca ptr, align 8
  store ptr %0, ptr %2, align 8, !tbaa !14
  %3 = load ptr, ptr %2, align 8, !tbaa !14
  %4 = getelementptr inbounds nuw %struct._object, ptr %3, i32 0, i32 0
  %5 = getelementptr inbounds nuw %struct.anon, ptr %4, i32 0, i32 0
  %6 = load i32, ptr %5, align 8, !tbaa !28
  %7 = icmp slt i32 %6, 0
  %8 = zext i1 %7 to i32
  ret i32 %8
}

; Function Attrs: alwaysinline nounwind uwtable
define internal void @Py_DECREF(ptr noundef %0) #3 {
  %2 = alloca ptr, align 8
  store ptr %0, ptr %2, align 8, !tbaa !14
  %3 = load ptr, ptr %2, align 8, !tbaa !14
  %4 = call i32 @_Py_IsImmortal(ptr noundef %3)
  %5 = icmp ne i32 %4, 0
  br i1 %5, label %6, label %7

6:                                                ; preds = %1
  br label %16

7:                                                ; preds = %1
  %8 = load ptr, ptr %2, align 8, !tbaa !14
  %9 = getelementptr inbounds nuw %struct._object, ptr %8, i32 0, i32 0
  %10 = getelementptr inbounds nuw %struct.anon, ptr %9, i32 0, i32 0
  %11 = load i32, ptr %10, align 8, !tbaa !28
  %12 = add i32 %11, -1
  store i32 %12, ptr %10, align 8, !tbaa !28
  %13 = icmp eq i32 %12, 0
  br i1 %13, label %14, label %16

14:                                               ; preds = %7
  %15 = load ptr, ptr %2, align 8, !tbaa !14
  call void @_Py_Dealloc(ptr noundef %15)
  br label %16

16:                                               ; preds = %6, %14, %7
  ret void
}

; Function Attrs: nounwind uwtable
define internal i32 @hashlib_md_meth_names(ptr noundef %0) #0 {
  %2 = alloca i32, align 4
  %3 = alloca ptr, align 8
  %4 = alloca %struct._internal_name_mapper_state, align 8
  %5 = alloca i32, align 4
  store ptr %0, ptr %3, align 8, !tbaa !14
  call void @llvm.lifetime.start.p0(i64 16, ptr %4) #9
  %6 = getelementptr inbounds nuw %struct._internal_name_mapper_state, ptr %4, i32 0, i32 0
  %7 = call ptr @PyFrozenSet_New(ptr noundef null)
  store ptr %7, ptr %6, align 8, !tbaa !81
  %8 = getelementptr inbounds nuw %struct._internal_name_mapper_state, ptr %4, i32 0, i32 1
  store i32 0, ptr %8, align 8, !tbaa !83
  %9 = getelementptr i8, ptr %4, i64 12
  call void @llvm.memset.p0.i64(ptr align 4 %9, i8 0, i64 4, i1 false)
  %10 = getelementptr inbounds nuw %struct._internal_name_mapper_state, ptr %4, i32 0, i32 0
  %11 = load ptr, ptr %10, align 8, !tbaa !81
  %12 = icmp eq ptr %11, null
  br i1 %12, label %13, label %14

13:                                               ; preds = %1
  store i32 -1, ptr %2, align 4
  store i32 1, ptr %5, align 4
  br label %26

14:                                               ; preds = %1
  call void @EVP_MD_do_all_provided(ptr noundef null, ptr noundef @_openssl_hash_name_mapper, ptr noundef %4)
  %15 = getelementptr inbounds nuw %struct._internal_name_mapper_state, ptr %4, i32 0, i32 1
  %16 = load i32, ptr %15, align 8, !tbaa !83
  %17 = icmp ne i32 %16, 0
  br i1 %17, label %18, label %21

18:                                               ; preds = %14
  %19 = getelementptr inbounds nuw %struct._internal_name_mapper_state, ptr %4, i32 0, i32 0
  %20 = load ptr, ptr %19, align 8, !tbaa !81
  call void @Py_DECREF(ptr noundef %20)
  store i32 -1, ptr %2, align 4
  store i32 1, ptr %5, align 4
  br label %26

21:                                               ; preds = %14
  %22 = load ptr, ptr %3, align 8, !tbaa !14
  %23 = getelementptr inbounds nuw %struct._internal_name_mapper_state, ptr %4, i32 0, i32 0
  %24 = load ptr, ptr %23, align 8, !tbaa !81
  %25 = call i32 @PyModule_Add(ptr noundef %22, ptr noundef @.str.133, ptr noundef %24)
  store i32 %25, ptr %2, align 4
  store i32 1, ptr %5, align 4
  br label %26

26:                                               ; preds = %21, %18, %13
  call void @llvm.lifetime.end.p0(i64 16, ptr %4) #9
  %27 = load i32, ptr %2, align 4
  ret i32 %27
}