; Function Attrs: nounwind uwtable
define internal i32 @hashlib_md_meth_names(ptr noundef %0) #0 {
  %2 = alloca %struct._internal_name_mapper_state, align 8
  call void @llvm.lifetime.start.p0(i64 16, ptr nonnull %2) #9
  %3 = tail call ptr @PyFrozenSet_New(ptr noundef null) #9
  store ptr %3, ptr %2, align 8, !tbaa !71
  %4 = getelementptr inbounds nuw i8, ptr %2, i64 8
  store i32 0, ptr %4, align 8, !tbaa !73
  %5 = getelementptr inbounds nuw i8, ptr %2, i64 12
  store i32 0, ptr %5, align 4
  %6 = icmp eq ptr %3, null
  br i1 %6, label %Py_DECREF.exit, label %7

7:                                                ; preds = %1
  call void @EVP_MD_do_all_provided(ptr noundef null, ptr noundef nonnull @_openssl_hash_name_mapper, ptr noundef nonnull %2) #9
  %8 = load i32, ptr %4, align 8, !tbaa !73
  %.not = icmp eq i32 %8, 0
  %9 = load ptr, ptr %2, align 8, !tbaa !71
  br i1 %.not, label %16, label %10

10:                                               ; preds = %7
  %11 = load i32, ptr %9, align 8, !tbaa !21
  %.not.i = icmp sgt i32 %11, -1
  br i1 %.not.i, label %12, label %Py_DECREF.exit

12:                                               ; preds = %10
  %13 = add nsw i32 %11, -1
  store i32 %13, ptr %9, align 8, !tbaa !21
  %14 = icmp eq i32 %13, 0
  br i1 %14, label %15, label %Py_DECREF.exit

15:                                               ; preds = %12
  call void @_Py_Dealloc(ptr noundef nonnull %9) #9
  br label %Py_DECREF.exit

16:                                               ; preds = %7
  %17 = call i32 @PyModule_Add(ptr noundef %0, ptr noundef nonnull @.str.133, ptr noundef %9) #9
  br label %Py_DECREF.exit

Py_DECREF.exit:                                   ; preds = %15, %12, %10, %1, %16
  %.0 = phi i32 [ %17, %16 ], [ -1, %1 ], [ -1, %10 ], [ -1, %12 ], [ -1, %15 ]
  call void @llvm.lifetime.end.p0(i64 16, ptr nonnull %2) #9
  ret i32 %.0
}